target datalayout = "e-m:e-p270:32:32-p271:32:32-p272:64:64-i64:64-i128:128-f80:128-n8:16:32:64-S128"
target triple = "x86_64-pc-linux-gnu"

%struct.mbedtls_mpi = type { ptr, i16, i16 }
%union.mbedtls_ssl_user_data_t = type { i64 }
%struct.mbedtls_ssl_context = type { ptr, i32, i32, i32, i32, i32, ptr, ptr, ptr, ptr, ptr, ptr, ptr, ptr, ptr, ptr, ptr, ptr, ptr, ptr, ptr, ptr, ptr, ptr, ptr, ptr, ptr, ptr, ptr, ptr, ptr, ptr, ptr, i32, i64, i64, i16, i64, i64, i64, i64, i32, i32, i8, i8, i32, i8, ptr, ptr, ptr, ptr, ptr, ptr, ptr, i32, i64, i64, [8 x i8], i16, ptr, ptr, ptr, i64, i32, i64, [12 x i8], [12 x i8], [32 x i8], i8, i8, ptr, ptr, %union.mbedtls_ssl_user_data_t }
%struct.mbedtls_md_context_t = type { ptr, ptr, ptr }
%struct.mbedtls_ssl_handshake_params = type { i8, i8, i8, i8, i8, i32, i8, i8, i8, i8, ptr, ptr, ptr, ptr, ptr, i8, i8, i8, i8, i16, i16, [20 x i16], ptr, ptr, %struct.mbedtls_dhm_context, %struct.mbedtls_ecdh_context, i16, i64, i32, i8, [1024 x i8], i64, ptr, ptr, i64, i16, ptr, ptr, ptr, ptr, %struct.anon, ptr, i16, i8, i32, i32, i32, ptr, ptr, ptr, i32, ptr, [8 x i8], i8, [32 x i8], i8, i16, %struct.mbedtls_md_context_t, %struct.mbedtls_md_context_t, i16, i8, %union.anon.1, [64 x i8], [1076 x i8], i64, i32, i32, i8, ptr, ptr, %union.anon.4, %struct.mbedtls_ssl_tls13_handshake_secrets, ptr, i64, ptr }
%struct.mbedtls_dhm_context = type { %struct.mbedtls_mpi, %struct.mbedtls_mpi, %struct.mbedtls_mpi, %struct.mbedtls_mpi, %struct.mbedtls_mpi, %struct.mbedtls_mpi, %struct.mbedtls_mpi, %struct.mbedtls_mpi, %struct.mbedtls_mpi, %struct.mbedtls_mpi }
%struct.mbedtls_ecdh_context = type { i8, i32, i32, %union.anon }
%union.anon = type { %struct.mbedtls_ecdh_context_mbed }
%struct.mbedtls_ecdh_context_mbed = type { %struct.mbedtls_ecp_group, %struct.mbedtls_mpi, %struct.mbedtls_ecp_point, %struct.mbedtls_ecp_point, %struct.mbedtls_mpi }
%struct.mbedtls_ecp_group = type { i32, %struct.mbedtls_mpi, %struct.mbedtls_mpi, %struct.mbedtls_mpi, %struct.mbedtls_ecp_point, %struct.mbedtls_mpi, i64, i64, i32, ptr, ptr, ptr, ptr, ptr, i64 }
%struct.mbedtls_ecp_point = type { %struct.mbedtls_mpi, %struct.mbedtls_mpi, %struct.mbedtls_mpi }
%struct.anon = type { i64, i8, [4 x %struct.mbedtls_ssl_hs_buffer], %struct.anon.0 }
%struct.mbedtls_ssl_hs_buffer = type { i8, ptr, i64 }
%struct.anon.0 = type { ptr, i64, i32 }
%union.anon.1 = type { %struct.anon.2 }
%struct.anon.2 = type { i8, [64 x i8], i64 }
%union.anon.4 = type { [64 x i8] }
%struct.mbedtls_ssl_tls13_handshake_secrets = type { [64 x i8], [64 x i8] }
%struct.mbedtls_ssl_key_cert = type { ptr, ptr, ptr }

; Function Attrs: nounwind uwtable
define internal void @ssl_key_cert_free(ptr noundef %0) #0 {
  %2 = alloca ptr, align 8
  %3 = alloca ptr, align 8
  %4 = alloca ptr, align 8
  store ptr %0, ptr %2, align 8, !tbaa !188
  call void @llvm.lifetime.start.p0(i64 8, ptr %3) #11
  %5 = load ptr, ptr %2, align 8, !tbaa !188
  store ptr %5, ptr %3, align 8, !tbaa !188
  call void @llvm.lifetime.start.p0(i64 8, ptr %4) #11
  br label %6

6:                                                ; preds = %9, %1
  %7 = load ptr, ptr %3, align 8, !tbaa !188
  %8 = icmp ne ptr %7, null
  br i1 %8, label %9, label %15

9:                                                ; preds = %6
  %10 = load ptr, ptr %3, align 8, !tbaa !188
  %11 = getelementptr inbounds nuw %struct.mbedtls_ssl_key_cert, ptr %10, i32 0, i32 2
  %12 = load ptr, ptr %11, align 8, !tbaa !192
  store ptr %12, ptr %4, align 8, !tbaa !188
  %13 = load ptr, ptr %3, align 8, !tbaa !188
  call void @free(ptr noundef %13) #11
  %14 = load ptr, ptr %4, align 8, !tbaa !188
  store ptr %14, ptr %3, align 8, !tbaa !188
  br label %6, !llvm.loop !259

15:                                               ; preds = %6
  call void @llvm.lifetime.end.p0(i64 8, ptr %4) #11
  call void @llvm.lifetime.end.p0(i64 8, ptr %3) #11
  ret void
}

; Function Attrs: nounwind uwtable
define hidden void @mbedtls_ssl_handshake_free(ptr noundef %0) #0 {
  %2 = alloca ptr, align 8
  %3 = alloca ptr, align 8
  %4 = alloca i32, align 4
  store ptr %0, ptr %2, align 8, !tbaa !27
  call void @llvm.lifetime.start.p0(i64 8, ptr %3) #11
  %5 = load ptr, ptr %2, align 8, !tbaa !27
  %6 = getelementptr inbounds nuw %struct.mbedtls_ssl_context, ptr %5, i32 0, i32 16
  %7 = load ptr, ptr %6, align 8, !tbaa !78
  store ptr %7, ptr %3, align 8, !tbaa !251
  %8 = load ptr, ptr %3, align 8, !tbaa !251
  %9 = icmp eq ptr %8, null
  br i1 %9, label %10, label %11

10:                                               ; preds = %1
  store i32 1, ptr %4, align 4
  br label %100

11:                                               ; preds = %1
  %12 = load ptr, ptr %2, align 8, !tbaa !27
  %13 = getelementptr inbounds nuw %struct.mbedtls_ssl_context, ptr %12, i32 0, i32 16
  %14 = load ptr, ptr %13, align 8, !tbaa !78
  %15 = getelementptr inbounds nuw %struct.mbedtls_ssl_handshake_params, ptr %14, i32 0, i32 8
  %16 = load i8, ptr %15, align 2, !tbaa !118
  %17 = icmp ne i8 %16, 0
  br i1 %17, label %18, label %22

18:                                               ; preds = %11
  %19 = load ptr, ptr %3, align 8, !tbaa !251
  %20 = getelementptr inbounds nuw %struct.mbedtls_ssl_handshake_params, ptr %19, i32 0, i32 22
  %21 = load ptr, ptr %20, align 8, !tbaa !117
  call void @free(ptr noundef %21) #11
  br label %22

22:                                               ; preds = %18, %11
  %23 = load ptr, ptr %3, align 8, !tbaa !251
  %24 = getelementptr inbounds nuw %struct.mbedtls_ssl_handshake_params, ptr %23, i32 0, i32 22
  store ptr null, ptr %24, align 8, !tbaa !117
  %25 = load ptr, ptr %2, align 8, !tbaa !27
  %26 = getelementptr inbounds nuw %struct.mbedtls_ssl_context, ptr %25, i32 0, i32 16
  %27 = load ptr, ptr %26, align 8, !tbaa !78
  %28 = getelementptr inbounds nuw %struct.mbedtls_ssl_handshake_params, ptr %27, i32 0, i32 9
  %29 = load i8, ptr %28, align 1, !tbaa !124
  %30 = icmp ne i8 %29, 0
  br i1 %30, label %31, label %35

31:                                               ; preds = %22
  %32 = load ptr, ptr %3, align 8, !tbaa !251
  %33 = getelementptr inbounds nuw %struct.mbedtls_ssl_handshake_params, ptr %32, i32 0, i32 23
  %34 = load ptr, ptr %33, align 8, !tbaa !122
  call void @free(ptr noundef %34) #11
  br label %35

35:                                               ; preds = %31, %22
  %36 = load ptr, ptr %3, align 8, !tbaa !251
  %37 = getelementptr inbounds nuw %struct.mbedtls_ssl_handshake_params, ptr %36, i32 0, i32 23
  store ptr null, ptr %37, align 8, !tbaa !122
  %38 = load ptr, ptr %2, align 8, !tbaa !27
  %39 = getelementptr inbounds nuw %struct.mbedtls_ssl_context, ptr %38, i32 0, i32 16
  %40 = load ptr, ptr %39, align 8, !tbaa !78
  %41 = getelementptr inbounds nuw %struct.mbedtls_ssl_handshake_params, ptr %40, i32 0, i32 68
  %42 = load ptr, ptr %41, align 8, !tbaa !252
  %43 = icmp ne ptr %42, null
  br i1 %43, label %44, label %48

44:                                               ; preds = %35
  %45 = load ptr, ptr %3, align 8, !tbaa !251
  %46 = getelementptr inbounds nuw %struct.mbedtls_ssl_handshake_params, ptr %45, i32 0, i32 68
  %47 = load ptr, ptr %46, align 8, !tbaa !252
  call void @free(ptr noundef %47) #11
  br label %48

48:                                               ; preds = %44, %35
  %49 = load ptr, ptr %3, align 8, !tbaa !251
  %50 = getelementptr inbounds nuw %struct.mbedtls_ssl_handshake_params, ptr %49, i32 0, i32 57
  call void @mbedtls_md_free(ptr noundef %50)
  %51 = load ptr, ptr %3, align 8, !tbaa !251
  %52 = getelementptr inbounds nuw %struct.mbedtls_ssl_handshake_params, ptr %51, i32 0, i32 58
  call void @mbedtls_md_free(ptr noundef %52)
  %53 = load ptr, ptr %3, align 8, !tbaa !251
  %54 = getelementptr inbounds nuw %struct.mbedtls_ssl_handshake_params, ptr %53, i32 0, i32 24
  call void @mbedtls_dhm_free(ptr noundef %54)
  %55 = load ptr, ptr %3, align 8, !tbaa !251
  %56 = getelementptr inbounds nuw %struct.mbedtls_ssl_handshake_params, ptr %55, i32 0, i32 25
  call void @mbedtls_ecdh_free(ptr noundef %56)
  %57 = load ptr, ptr %3, align 8, !tbaa !251
  %58 = getelementptr inbounds nuw %struct.mbedtls_ssl_handshake_params, ptr %57, i32 0, i32 32
  %59 = load ptr, ptr %58, align 8, !tbaa !253
  call void @free(ptr noundef %59) #11
  %60 = load ptr, ptr %3, align 8, !tbaa !251
  %61 = getelementptr inbounds nuw %struct.mbedtls_ssl_handshake_params, ptr %60, i32 0, i32 33
  %62 = load ptr, ptr %61, align 8, !tbaa !209
  %63 = icmp ne ptr %62, null
  br i1 %63, label %64, label %71

64:                                               ; preds = %48
  %65 = load ptr, ptr %3, align 8, !tbaa !251
  %66 = getelementptr inbounds nuw %struct.mbedtls_ssl_handshake_params, ptr %65, i32 0, i32 33
  %67 = load ptr, ptr %66, align 8, !tbaa !209
  %68 = load ptr, ptr %3, align 8, !tbaa !251
  %69 = getelementptr inbounds nuw %struct.mbedtls_ssl_handshake_params, ptr %68, i32 0, i32 34
  %70 = load i64, ptr %69, align 8, !tbaa !210
  call void @mbedtls_zeroize_and_free(ptr noundef %67, i64 noundef %70)
  br label %71

71:                                               ; preds = %64, %48
  %72 = load ptr, ptr %3, align 8, !tbaa !251
  %73 = getelementptr inbounds nuw %struct.mbedtls_ssl_handshake_params, ptr %72, i32 0, i32 37
  %74 = load ptr, ptr %73, align 8, !tbaa !254
  call void @ssl_key_cert_free(ptr noundef %74)
  %75 = load ptr, ptr %3, align 8, !tbaa !251
  %76 = getelementptr inbounds nuw %struct.mbedtls_ssl_handshake_params, ptr %75, i32 0, i32 41
  %77 = load ptr, ptr %76, align 8, !tbaa !255
  call void @free(ptr noundef %77) #11
  %78 = load ptr, ptr %3, align 8, !tbaa !251
  %79 = getelementptr inbounds nuw %struct.mbedtls_ssl_handshake_params, ptr %78, i32 0, i32 47
  %80 = load ptr, ptr %79, align 8, !tbaa !256
  call void @mbedtls_ssl_flight_free(ptr noundef %80)
  %81 = load ptr, ptr %2, align 8, !tbaa !27
  call void @mbedtls_ssl_buffering_free(ptr noundef %81)
  %82 = load ptr, ptr %3, align 8, !tbaa !251
  %83 = getelementptr inbounds nuw %struct.mbedtls_ssl_handshake_params, ptr %82, i32 0, i32 29
  %84 = load i8, ptr %83, align 4, !tbaa !257
  %85 = zext i8 %84 to i32
  %86 = icmp eq i32 %85, 0
  br i1 %86, label %87, label %92

87:                                               ; preds = %71
  %88 = load ptr, ptr %3, align 8, !tbaa !251
  %89 = getelementptr inbounds nuw %struct.mbedtls_ssl_handshake_params, ptr %88, i32 0, i32 28
  %90 = load i32, ptr %89, align 8, !tbaa !258
  %91 = call i32 @psa_destroy_key(i32 noundef %90)
  br label %92

92:                                               ; preds = %87, %71
  %93 = load ptr, ptr %3, align 8, !tbaa !251
  %94 = getelementptr inbounds nuw %struct.mbedtls_ssl_handshake_params, ptr %93, i32 0, i32 69
  %95 = load ptr, ptr %94, align 8, !tbaa !140
  call void @mbedtls_ssl_transform_free(ptr noundef %95)
  %96 = load ptr, ptr %3, align 8, !tbaa !251
  %97 = getelementptr inbounds nuw %struct.mbedtls_ssl_handshake_params, ptr %96, i32 0, i32 69
  %98 = load ptr, ptr %97, align 8, !tbaa !140
  call void @free(ptr noundef %98) #11
  %99 = load ptr, ptr %3, align 8, !tbaa !251
  call void @mbedtls_platform_zeroize(ptr noundef %99, i64 noundef 3520)
  store i32 0, ptr %4, align 4
  br label %100

100:                                              ; preds = %92, %10
  call void @llvm.lifetime.end.p0(i64 8, ptr %3) #11
  %101 = load i32, ptr %4, align 4
  switch i32 %101, label %103 [
    i32 0, label %102
    i32 1, label %102
  ]

102:                                              ; preds = %100, %100
  ret void

103:                                              ; preds = %100
  unreachable
}