; Function Attrs: nounwind uwtable
define hidden void @mbedtls_ssl_handshake_free(ptr noundef %0) local_unnamed_addr #1 {
  %2 = getelementptr inbounds nuw i8, ptr %0, i64 112
  %3 = load ptr, ptr %2, align 8, !tbaa !70
  %4 = icmp eq ptr %3, null
  br i1 %4, label %59, label %5

5:                                                ; preds = %1
  %6 = getelementptr inbounds nuw i8, ptr %3, i64 14
  %7 = load i8, ptr %6, align 2, !tbaa !106
  %.not = icmp eq i8 %7, 0
  br i1 %.not, label %11, label %8

8:                                                ; preds = %5
  %9 = getelementptr inbounds nuw i8, ptr %3, i64 104
  %10 = load ptr, ptr %9, align 8, !tbaa !105
  tail call void @free(ptr noundef %10) #26
  %.pre = load ptr, ptr %2, align 8, !tbaa !70
  br label %11

11:                                               ; preds = %8, %5
  %12 = phi ptr [ %.pre, %8 ], [ %3, %5 ]
  %13 = getelementptr inbounds nuw i8, ptr %3, i64 104
  store ptr null, ptr %13, align 8, !tbaa !105
  %14 = getelementptr inbounds nuw i8, ptr %12, i64 15
  %15 = load i8, ptr %14, align 1, !tbaa !111
  %.not28 = icmp eq i8 %15, 0
  br i1 %.not28, label %19, label %16

16:                                               ; preds = %11
  %17 = getelementptr inbounds nuw i8, ptr %3, i64 112
  %18 = load ptr, ptr %17, align 8, !tbaa !109
  tail call void @free(ptr noundef %18) #26
  %.pre31 = load ptr, ptr %2, align 8, !tbaa !70
  br label %19

19:                                               ; preds = %16, %11
  %20 = phi ptr [ %.pre31, %16 ], [ %12, %11 ]
  %21 = getelementptr inbounds nuw i8, ptr %3, i64 112
  store ptr null, ptr %21, align 8, !tbaa !109
  %22 = getelementptr inbounds nuw i8, ptr %20, i64 3288
  %23 = load ptr, ptr %22, align 8, !tbaa !229
  %.not29 = icmp eq ptr %23, null
  br i1 %.not29, label %27, label %24

24:                                               ; preds = %19
  %25 = getelementptr inbounds nuw i8, ptr %3, i64 3288
  %26 = load ptr, ptr %25, align 8, !tbaa !229
  tail call void @free(ptr noundef %26) #26
  br label %27

27:                                               ; preds = %24, %19
  %28 = getelementptr inbounds nuw i8, ptr %3, i64 1984
  tail call void @mbedtls_md_free(ptr noundef nonnull %28) #26
  %29 = getelementptr inbounds nuw i8, ptr %3, i64 2008
  tail call void @mbedtls_md_free(ptr noundef nonnull %29) #26
  %30 = getelementptr inbounds nuw i8, ptr %3, i64 120
  tail call void @mbedtls_dhm_free(ptr noundef nonnull %30) #26
  %31 = getelementptr inbounds nuw i8, ptr %3, i64 280
  tail call void @mbedtls_ecdh_free(ptr noundef nonnull %31) #26
  %32 = getelementptr inbounds nuw i8, ptr %3, i64 1672
  %33 = load ptr, ptr %32, align 8, !tbaa !230
  tail call void @free(ptr noundef %33) #26
  %34 = getelementptr inbounds nuw i8, ptr %3, i64 1680
  %35 = load ptr, ptr %34, align 8, !tbaa !181
  %.not30 = icmp eq ptr %35, null
  br i1 %.not30, label %39, label %36

36:                                               ; preds = %27
  %37 = getelementptr inbounds nuw i8, ptr %3, i64 1688
  %38 = load i64, ptr %37, align 8, !tbaa !182
  tail call void @mbedtls_zeroize_and_free(ptr noundef nonnull %35, i64 noundef %38) #26
  br label %39

39:                                               ; preds = %36, %27
  %40 = getelementptr inbounds nuw i8, ptr %3, i64 1712
  %41 = load ptr, ptr %40, align 8, !tbaa !231
  %.not5.i = icmp eq ptr %41, null
  br i1 %.not5.i, label %ssl_key_cert_free.exit, label %.lr.ph.i

.lr.ph.i:                                         ; preds = %39, %.lr.ph.i
  %.06.i = phi ptr [ %43, %.lr.ph.i ], [ %41, %39 ]
  %42 = getelementptr inbounds nuw i8, ptr %.06.i, i64 16
  %43 = load ptr, ptr %42, align 8, !tbaa !165
  tail call void @free(ptr noundef nonnull %.06.i) #26
  %.not.i = icmp eq ptr %43, null
  br i1 %.not.i, label %ssl_key_cert_free.exit, label %.lr.ph.i, !llvm.loop !168

ssl_key_cert_free.exit:                           ; preds = %.lr.ph.i, %39
  %44 = getelementptr inbounds nuw i8, ptr %3, i64 1872
  %45 = load ptr, ptr %44, align 8, !tbaa !232
  tail call void @free(ptr noundef %45) #26
  %46 = getelementptr inbounds nuw i8, ptr %3, i64 1896
  %47 = load ptr, ptr %46, align 8, !tbaa !233
  tail call void @mbedtls_ssl_flight_free(ptr noundef %47) #26
  tail call void @mbedtls_ssl_buffering_free(ptr noundef nonnull %0) #26
  %48 = getelementptr inbounds nuw i8, ptr %3, i64 636
  %49 = load i8, ptr %48, align 4, !tbaa !234
  %50 = icmp eq i8 %49, 0
  br i1 %50, label %51, label %55

51:                                               ; preds = %ssl_key_cert_free.exit
  %52 = getelementptr inbounds nuw i8, ptr %3, i64 632
  %53 = load i32, ptr %52, align 8, !tbaa !235
  %54 = tail call i32 @psa_destroy_key(i32 noundef %53) #26
  br label %55

55:                                               ; preds = %51, %ssl_key_cert_free.exit
  %56 = getelementptr inbounds nuw i8, ptr %3, i64 3296
  %57 = load ptr, ptr %56, align 8, !tbaa !122
  tail call void @mbedtls_ssl_transform_free(ptr noundef %57) #26
  %58 = load ptr, ptr %56, align 8, !tbaa !122
  tail call void @free(ptr noundef %58) #26
  tail call void @mbedtls_platform_zeroize(ptr noundef nonnull %3, i64 noundef 3520) #26
  br label %59

59:                                               ; preds = %1, %55
  ret void
}